target datalayout = "e-m:e-p270:32:32-p271:32:32-p272:64:64-i64:64-i128:128-f80:128-n8:16:32:64-S128"
target triple = "x86_64-pc-linux-gnu"

@.str.43 = private unnamed_addr constant [3 x i8] c"bt\00", align 1
@.str.44 = private unnamed_addr constant [13 x i8] c"invalid mode\00", align 1

; Function Attrs: nounwind uwtable
define internal i32 @load_aux(ptr noundef %0, i32 noundef %1, i32 noundef %2) #0 {
  %4 = alloca i32, align 4
  %5 = alloca ptr, align 8
  %6 = alloca i32, align 4
  %7 = alloca i32, align 4
  store ptr %0, ptr %5, align 8, !tbaa !4
  store i32 %1, ptr %6, align 4, !tbaa !10
  store i32 %2, ptr %7, align 4, !tbaa !10
  %8 = load i32, ptr %6, align 4, !tbaa !10
  %9 = icmp eq i32 %8, 0
  %10 = zext i1 %9 to i32
  %11 = icmp ne i32 %10, 0
  %12 = zext i1 %11 to i32
  %13 = sext i32 %12 to i64
  %14 = call i64 @llvm.expect.i64(i64 %13, i64 1)
  %15 = icmp ne i64 %14, 0
  br i1 %15, label %16, label %29

16:                                               ; preds = %3
  %17 = load i32, ptr %7, align 4, !tbaa !10
  %18 = icmp ne i32 %17, 0
  br i1 %18, label %19, label %28

19:                                               ; preds = %16
  %20 = load ptr, ptr %5, align 8, !tbaa !4
  %21 = load i32, ptr %7, align 4, !tbaa !10
  call void @lua_pushvalue(ptr noundef %20, i32 noundef %21)
  %22 = load ptr, ptr %5, align 8, !tbaa !4
  %23 = call ptr @lua_setupvalue(ptr noundef %22, i32 noundef -2, i32 noundef 1)
  %24 = icmp ne ptr %23, null
  br i1 %24, label %27, label %25

25:                                               ; preds = %19
  %26 = load ptr, ptr %5, align 8, !tbaa !4
  call void @lua_settop(ptr noundef %26, i32 noundef -2)
  br label %27

27:                                               ; preds = %25, %19
  br label %28

28:                                               ; preds = %27, %16
  store i32 1, ptr %4, align 4
  br label %32

29:                                               ; preds = %3
  %30 = load ptr, ptr %5, align 8, !tbaa !4
  call void @lua_pushnil(ptr noundef %30)
  %31 = load ptr, ptr %5, align 8, !tbaa !4
  call void @lua_rotate(ptr noundef %31, i32 noundef -2, i32 noundef 1)
  store i32 2, ptr %4, align 4
  br label %32

32:                                               ; preds = %29, %28
  %33 = load i32, ptr %4, align 4
  ret i32 %33
}

; Function Attrs: nounwind uwtable
define internal ptr @getMode(ptr noundef %0, i32 noundef %1) #0 {
  %3 = alloca ptr, align 8
  %4 = alloca i32, align 4
  %5 = alloca ptr, align 8
  store ptr %0, ptr %3, align 8, !tbaa !4
  store i32 %1, ptr %4, align 4, !tbaa !10
  call void @llvm.lifetime.start.p0(i64 8, ptr %5) #6
  %6 = load ptr, ptr %3, align 8, !tbaa !4
  %7 = load i32, ptr %4, align 4, !tbaa !10
  %8 = call ptr @luaL_optlstring(ptr noundef %6, i32 noundef %7, ptr noundef @.str.43, ptr noundef null)
  store ptr %8, ptr %5, align 8, !tbaa !14
  %9 = load ptr, ptr %5, align 8, !tbaa !14
  %10 = call ptr @strchr(ptr noundef %9, i32 noundef 66) #7
  %11 = icmp ne ptr %10, null
  br i1 %11, label %12, label %16

12:                                               ; preds = %2
  %13 = load ptr, ptr %3, align 8, !tbaa !4
  %14 = load i32, ptr %4, align 4, !tbaa !10
  %15 = call i32 @luaL_argerror(ptr noundef %13, i32 noundef %14, ptr noundef @.str.44)
  br label %16

16:                                               ; preds = %12, %2
  %17 = load ptr, ptr %5, align 8, !tbaa !14
  call void @llvm.lifetime.end.p0(i64 8, ptr %5) #6
  ret ptr %17
}

; Function Attrs: nounwind uwtable
define internal i32 @luaB_loadfile(ptr noundef %0) #0 {
  %2 = alloca ptr, align 8
  %3 = alloca ptr, align 8
  %4 = alloca ptr, align 8
  %5 = alloca i32, align 4
  %6 = alloca i32, align 4
  store ptr %0, ptr %2, align 8, !tbaa !4
  call void @llvm.lifetime.start.p0(i64 8, ptr %3) #6
  %7 = load ptr, ptr %2, align 8, !tbaa !4
  %8 = call ptr @luaL_optlstring(ptr noundef %7, i32 noundef 1, ptr noundef null, ptr noundef null)
  store ptr %8, ptr %3, align 8, !tbaa !14
  call void @llvm.lifetime.start.p0(i64 8, ptr %4) #6
  %9 = load ptr, ptr %2, align 8, !tbaa !4
  %10 = call ptr @getMode(ptr noundef %9, i32 noundef 2)
  store ptr %10, ptr %4, align 8, !tbaa !14
  call void @llvm.lifetime.start.p0(i64 4, ptr %5) #6
  %11 = load ptr, ptr %2, align 8, !tbaa !4
  %12 = call i32 @lua_type(ptr noundef %11, i32 noundef 3)
  %13 = icmp eq i32 %12, -1
  %14 = xor i1 %13, true
  %15 = select i1 %14, i32 3, i32 0
  store i32 %15, ptr %5, align 4, !tbaa !10
  call void @llvm.lifetime.start.p0(i64 4, ptr %6) #6
  %16 = load ptr, ptr %2, align 8, !tbaa !4
  %17 = load ptr, ptr %3, align 8, !tbaa !14
  %18 = load ptr, ptr %4, align 8, !tbaa !14
  %19 = call i32 @luaL_loadfilex(ptr noundef %16, ptr noundef %17, ptr noundef %18)
  store i32 %19, ptr %6, align 4, !tbaa !10
  %20 = load ptr, ptr %2, align 8, !tbaa !4
  %21 = load i32, ptr %6, align 4, !tbaa !10
  %22 = load i32, ptr %5, align 4, !tbaa !10
  %23 = call i32 @load_aux(ptr noundef %20, i32 noundef %21, i32 noundef %22)
  call void @llvm.lifetime.end.p0(i64 4, ptr %6) #6
  call void @llvm.lifetime.end.p0(i64 4, ptr %5) #6
  call void @llvm.lifetime.end.p0(i64 8, ptr %4) #6
  call void @llvm.lifetime.end.p0(i64 8, ptr %3) #6
  ret i32 %23
}