; Function Attrs: nounwind uwtable
define internal range(i32 1, 3) i32 @luaB_loadfile(ptr noundef %0) #0 {
  %2 = tail call ptr @luaL_optlstring(ptr noundef %0, i32 noundef 1, ptr noundef null, ptr noundef null) #9
  %3 = tail call ptr @luaL_optlstring(ptr noundef %0, i32 noundef 2, ptr noundef nonnull @.str.43, ptr noundef null) #9
  %4 = tail call ptr @strchr(ptr noundef nonnull dereferenceable(1) %3, i32 noundef 66) #10
  %.not.i = icmp eq ptr %4, null
  br i1 %.not.i, label %getMode.exit, label %5

5:                                                ; preds = %1
  %6 = tail call i32 @luaL_argerror(ptr noundef %0, i32 noundef 2, ptr noundef nonnull @.str.44) #9
  br label %getMode.exit

getMode.exit:                                     ; preds = %1, %5
  %7 = tail call i32 @lua_type(ptr noundef %0, i32 noundef 3) #9
  %8 = tail call i32 @luaL_loadfilex(ptr noundef %0, ptr noundef %2, ptr noundef nonnull %3) #9
  %9 = icmp eq i32 %8, 0
  br i1 %9, label %10, label %14, !prof !8

10:                                               ; preds = %getMode.exit
  %.not = icmp eq i32 %7, -1
  br i1 %.not, label %load_aux.exit, label %11

11:                                               ; preds = %10
  tail call void @lua_pushvalue(ptr noundef %0, i32 noundef range(i32 0, 5) 3) #9
  %12 = tail call ptr @lua_setupvalue(ptr noundef %0, i32 noundef -2, i32 noundef 1) #9
  %.not9.i = icmp eq ptr %12, null
  br i1 %.not9.i, label %13, label %load_aux.exit

13:                                               ; preds = %11
  tail call void @lua_settop(ptr noundef %0, i32 noundef -2) #9
  br label %load_aux.exit

14:                                               ; preds = %getMode.exit
  tail call void @lua_pushnil(ptr noundef %0) #9
  tail call void @lua_rotate(ptr noundef %0, i32 noundef -2, i32 noundef 1) #9
  br label %load_aux.exit

load_aux.exit:                                    ; preds = %10, %11, %13, %14
  %.0.i = phi i32 [ 2, %14 ], [ 1, %11 ], [ 1, %13 ], [ 1, %10 ]
  ret i32 %.0.i
}